; Function Attrs: mustprogress nounwind uwtable
define dso_local noundef range(i64 1, -9223372036854775807) i64 @_ZNK4llvm17X86TargetLowering21getByValTypeAlignmentEPNS_4TypeERKNS_10DataLayoutE(ptr noundef nonnull readonly align 8 captures(none) dereferenceable(408160) %0, ptr noundef %1, ptr noundef nonnull align 8 dereferenceable(512) %2) unnamed_addr #0 align 2 {
  %4 = alloca %"struct.llvm::Align", align 1
  %5 = getelementptr inbounds nuw i8, ptr %0, i64 408128
  %6 = load ptr, ptr %5, align 8
  %7 = getelementptr inbounds nuw i8, ptr %6, i64 455
  %8 = load i8, ptr %7, align 1
  %9 = trunc i8 %8 to i1
  br i1 %9, label %10, label %15

10:                                               ; preds = %3
  %11 = tail call i8 @_ZNK4llvm10DataLayout15getABITypeAlignEPNS_4TypeE(ptr noundef nonnull align 8 dereferenceable(512) %2, ptr noundef %1) #23
  %12 = zext nneg i8 %11 to i64
  %13 = icmp ugt i8 %11, 3
  %14 = shl nuw i64 1, %12
  %spec.select = select i1 %13, i64 %14, i64 8
  br label %24

15:                                               ; preds = %3
  store i8 2, ptr %4, align 1
  %16 = getelementptr inbounds nuw i8, ptr %6, i64 304
  %17 = load i32, ptr %16, align 8
  %18 = icmp sgt i32 %17, 0
  br i1 %18, label %19, label %21

19:                                               ; preds = %15
  call fastcc void @_ZL16getMaxByValAlignPN4llvm4TypeERNS_5AlignE(ptr noundef %1, ptr noundef nonnull align 1 dereferenceable(1) %4)
  %.pre = load i8, ptr %4, align 1
  %20 = zext nneg i8 %.pre to i64
  br label %21

21:                                               ; preds = %19, %15
  %22 = phi i64 [ %20, %19 ], [ 2, %15 ]
  %23 = shl nuw i64 1, %22
  br label %24

24:                                               ; preds = %10, %21
  %.0 = phi i64 [ %23, %21 ], [ %spec.select, %10 ]
  ret i64 %.0
}